; ModuleID = '56/2679.c'
source_filename = "56/2679.c"
target datalayout = "e-m:e-p270:32:32-p271:32:32-p272:64:64-i64:64-f80:128-n8:16:32:64-S128"
target triple = "x86_64-pc-linux-gnu"

@.str = private unnamed_addr constant [3 x i8] c"%d\00", align 1
@.str.1 = private unnamed_addr constant [11 x i8] c"%d%d%d%d%d\00", align 1
@.str.2 = private unnamed_addr constant [9 x i8] c"%d%d%d%d\00", align 1
@.str.3 = private unnamed_addr constant [7 x i8] c"%d%d%d\00", align 1
@.str.4 = private unnamed_addr constant [6 x i8] c"%d%xd\00", align 1

; Function Attrs: noinline nounwind uwtable
define dso_local void @main() #0 {
  %1 = alloca i32, align 4
  %2 = alloca i32, align 4
  %3 = alloca i32, align 4
  %4 = alloca i32, align 4
  %5 = alloca i32, align 4
  %6 = alloca i32, align 4
  %7 = alloca i32, align 4
  %8 = call i32 (i8*, ...) @__isoc99_scanf(i8* getelementptr inbounds ([3 x i8], [3 x i8]* @.str, i64 0, i64 0), i32* %7)
  %9 = load i32, i32* %7, align 4
  %10 = sitofp i32 %9 to double
  %11 = call double @log10(double %10) #3
  %12 = fadd double %11, 1.000000e+00
  %13 = fptosi double %12 to i32
  store i32 %13, i32* %6, align 4
  %14 = load i32, i32* %7, align 4
  %15 = sdiv i32 %14, 10000
  store i32 %15, i32* %5, align 4
  %16 = load i32, i32* %7, align 4
  %17 = load i32, i32* %5, align 4
  %18 = mul nsw i32 10000, %17
  %19 = sub nsw i32 %16, %18
  %20 = sdiv i32 %19, 1000
  store i32 %20, i32* %4, align 4
  %21 = load i32, i32* %7, align 4
  %22 = load i32, i32* %5, align 4
  %23 = mul nsw i32 10000, %22
  %24 = sub nsw i32 %21, %23
  %25 = load i32, i32* %4, align 4
  %26 = mul nsw i32 1000, %25
  %27 = sub nsw i32 %24, %26
  %28 = sdiv i32 %27, 100
  store i32 %28, i32* %3, align 4
  %29 = load i32, i32* %7, align 4
  %30 = load i32, i32* %5, align 4
  %31 = mul nsw i32 10000, %30
  %32 = sub nsw i32 %29, %31
  %33 = load i32, i32* %4, align 4
  %34 = mul nsw i32 1000, %33
  %35 = sub nsw i32 %32, %34
  %36 = load i32, i32* %3, align 4
  %37 = mul nsw i32 100, %36
  %38 = sub nsw i32 %35, %37
  %39 = sdiv i32 %38, 10
  store i32 %39, i32* %2, align 4
  %40 = load i32, i32* %7, align 4
  %41 = load i32, i32* %5, align 4
  %42 = mul nsw i32 10000, %41
  %43 = sub nsw i32 %40, %42
  %44 = load i32, i32* %4, align 4
  %45 = mul nsw i32 1000, %44
  %46 = sub nsw i32 %43, %45
  %47 = load i32, i32* %3, align 4
  %48 = mul nsw i32 100, %47
  %49 = sub nsw i32 %46, %48
  %50 = load i32, i32* %2, align 4
  %51 = mul nsw i32 10, %50
  %52 = sub nsw i32 %49, %51
  store i32 %52, i32* %1, align 4
  %53 = load i32, i32* %6, align 4
  switch i32 %53, label %79 [
    i32 5, label %54
    i32 4, label %61
    i32 3, label %67
    i32 2, label %72
    i32 1, label %76
  ]

54:                                               ; preds = %0
  %55 = load i32, i32* %1, align 4
  %56 = load i32, i32* %2, align 4
  %57 = load i32, i32* %3, align 4
  %58 = load i32, i32* %4, align 4
  %59 = load i32, i32* %5, align 4
  %60 = call i32 (i8*, ...) @printf(i8* getelementptr inbounds ([11 x i8], [11 x i8]* @.str.1, i64 0, i64 0), i32 %55, i32 %56, i32 %57, i32 %58, i32 %59)
  br label %79

61:                                               ; preds = %0
  %62 = load i32, i32* %1, align 4
  %63 = load i32, i32* %2, align 4
  %64 = load i32, i32* %3, align 4
  %65 = load i32, i32* %4, align 4
  %66 = call i32 (i8*, ...) @printf(i8* getelementptr inbounds ([9 x i8], [9 x i8]* @.str.2, i64 0, i64 0), i32 %62, i32 %63, i32 %64, i32 %65)
  br label %79

67:                                               ; preds = %0
  %68 = load i32, i32* %1, align 4
  %69 = load i32, i32* %2, align 4
  %70 = load i32, i32* %3, align 4
  %71 = call i32 (i8*, ...) @printf(i8* getelementptr inbounds ([7 x i8], [7 x i8]* @.str.3, i64 0, i64 0), i32 %68, i32 %69, i32 %70)
  br label %79

72:                                               ; preds = %0
  %73 = load i32, i32* %1, align 4
  %74 = load i32, i32* %2, align 4
  %75 = call i32 (i8*, ...) @printf(i8* getelementptr inbounds ([6 x i8], [6 x i8]* @.str.4, i64 0, i64 0), i32 %73, i32 %74)
  br label %79

76:                                               ; preds = %0
  %77 = load i32, i32* %1, align 4
  %78 = call i32 (i8*, ...) @printf(i8* getelementptr inbounds ([3 x i8], [3 x i8]* @.str, i64 0, i64 0), i32 %77)
  br label %79

79:                                               ; preds = %76, %0, %72, %67, %61, %54
  ret void
}

declare dso_local i32 @__isoc99_scanf(i8*, ...) #1

; Function Attrs: nounwind
declare dso_local double @log10(double) #2

declare dso_local i32 @printf(i8*, ...) #1


!llvm.module.flags = !{!0}
!llvm.ident = !{!1}

!0 = !{i32 1, !"wchar_size", i32 4}
!1 = !{!"clang version 10.0.0-4ubuntu1 "}
